; Function Attrs: nounwind uwtable
define i64 @duckdb_je_pa_shard_ndirty(ptr noundef %0) local_unnamed_addr #0 {
  %2 = getelementptr inbounds nuw i8, ptr %0, i64 192
  %3 = tail call i64 @duckdb_je_eset_npages_get(ptr noundef nonnull %2) #5
  %4 = getelementptr inbounds nuw i8, ptr %0, i64 9848
  %5 = tail call i64 @duckdb_je_eset_npages_get(ptr noundef nonnull %4) #5
  %6 = add i64 %5, %3
  %7 = getelementptr inbounds nuw i8, ptr %0, i64 17
  %8 = load i8, ptr %7, align 1, !tbaa !3, !range !49, !noundef !50
  %9 = trunc nuw i8 %8 to i1
  br i1 %9, label %10, label %13

10:                                               ; preds = %1
  %11 = getelementptr i8, ptr %0, i64 63752
  %.val = load i64, ptr %11, align 8, !tbaa !51
  %12 = add i64 %.val, %6
  br label %13

13:                                               ; preds = %10, %1
  %.0 = phi i64 [ %12, %10 ], [ %6, %1 ]
  ret i64 %.0
}